; Function Attrs: nofree nosync nounwind memory(argmem: readwrite) uwtable
define i32 @Lms_ObjAreaUnmark_rec(ptr noundef captures(none) %0) local_unnamed_addr #1 {
  %2 = load i64, ptr %0, align 4
  %3 = and i64 %2, 1073741824
  %.not6 = icmp eq i64 %3, 0
  %4 = and i64 %2, 2684354559
  %narrow.i.not7 = icmp eq i64 %4, 2684354559
  %or.cond8 = or i1 %.not6, %narrow.i.not7
  br i1 %or.cond8, label %tailrecurse._crit_edge, label %tailrecurse

tailrecurse:                                      ; preds = %1, %tailrecurse
  %5 = phi i64 [ %18, %tailrecurse ], [ %2, %1 ]
  %.tr10 = phi ptr [ %15, %tailrecurse ], [ %0, %1 ]
  %accumulator.tr9 = phi i32 [ %17, %tailrecurse ], [ 0, %1 ]
  %6 = and i64 %5, -1073741825
  store i64 %6, ptr %.tr10, align 4
  %7 = and i64 %5, 536870911
  %8 = sub nsw i64 0, %7
  %9 = getelementptr inbounds %struct.Gia_Obj_t_, ptr %.tr10, i64 %8
  %10 = tail call i32 @Lms_ObjAreaUnmark_rec(ptr noundef nonnull %9)
  %11 = load i64, ptr %.tr10, align 4
  %12 = lshr i64 %11, 32
  %13 = and i64 %12, 536870911
  %14 = sub nsw i64 0, %13
  %15 = getelementptr inbounds %struct.Gia_Obj_t_, ptr %.tr10, i64 %14
  %16 = add i32 %accumulator.tr9, 1
  %17 = add i32 %16, %10
  %18 = load i64, ptr %15, align 4
  %19 = and i64 %18, 1073741824
  %.not = icmp eq i64 %19, 0
  %20 = and i64 %18, 2684354559
  %narrow.i.not = icmp eq i64 %20, 2684354559
  %or.cond = or i1 %.not, %narrow.i.not
  br i1 %or.cond, label %tailrecurse._crit_edge, label %tailrecurse

tailrecurse._crit_edge:                           ; preds = %tailrecurse, %1
  %accumulator.tr.lcssa = phi i32 [ 0, %1 ], [ %17, %tailrecurse ]
  ret i32 %accumulator.tr.lcssa
}